; Function Attrs: mustprogress uwtable
define internal noundef ptr @"_ZZN4pkpy6FileIO9_registerEPNS_2VMEPNS_8PyObjectES4_EN3$_48__invokeES2_NS_8ArgsViewE"(ptr noundef %0, ptr readonly captures(none) %1, ptr readnone captures(none) %2) #3 align 2 personality ptr @__gxx_personality_v0 {
  %4 = alloca %"struct.pkpy::Str", align 8
  call void @llvm.lifetime.start.p0(i64 32, ptr nonnull %4)
  %5 = load ptr, ptr %1, align 8
  %6 = getelementptr inbounds nuw i8, ptr %5, i64 24
  %7 = getelementptr inbounds nuw i8, ptr %1, i64 8
  %8 = load ptr, ptr %7, align 8
  %9 = tail call noundef i64 @_ZN4pkpy18_py_cast__internalIlLb1EEET_PNS_2VMEPNS_8PyObjectE(ptr noundef %0, ptr noundef %8)
  %10 = getelementptr inbounds nuw i8, ptr %1, i64 16
  %11 = load ptr, ptr %10, align 8
  %12 = tail call noundef i32 @_ZN4pkpy18_py_cast__internalIiLb1EEET_PNS_2VMEPNS_8PyObjectE(ptr noundef %0, ptr noundef %11)
  %13 = load ptr, ptr %6, align 8
  %14 = tail call i32 @fseek(ptr noundef %13, i64 noundef %9, i32 noundef %12)
  %.not.i = icmp eq i32 %14, 0
  br i1 %.not.i, label %"_ZZN4pkpy6FileIO9_registerEPNS_2VMEPNS_8PyObjectES4_ENK3$_4clES2_NS_8ArgsViewE.exit", label %15

15:                                               ; preds = %3
  %16 = tail call ptr @__errno_location() #29
  %17 = load i32, ptr %16, align 4
  %18 = tail call ptr @strerror(i32 noundef %17) #26
  call void @_ZN4pkpy3StrC1EPKc(ptr noundef nonnull align 8 dereferenceable(32) %4, ptr noundef %18)
  %19 = invoke i16 @_ZN4pkpy7StrName3getESt17basic_string_viewIcSt11char_traitsIcEE(i64 7, ptr nonnull @.str.38)
          to label %.noexc.i unwind label %20

.noexc.i:                                         ; preds = %15
  invoke void @_ZN4pkpy2VM15__builtin_errorENS_7StrNameERKNS_3StrE(ptr noundef nonnull align 8 dereferenceable(264913) %0, i16 %19, ptr noundef nonnull align 8 dereferenceable(32) %4)
          to label %_ZN4pkpy2VM7IOErrorERKNS_3StrE.exit.i unwind label %20

_ZN4pkpy2VM7IOErrorERKNS_3StrE.exit.i:            ; preds = %.noexc.i
  call void @_ZN4pkpy3StrD1Ev(ptr noundef nonnull align 8 dereferenceable(32) %4) #26
  br label %"_ZZN4pkpy6FileIO9_registerEPNS_2VMEPNS_8PyObjectES4_ENK3$_4clES2_NS_8ArgsViewE.exit"

20:                                               ; preds = %.noexc.i, %15
  %21 = landingpad { ptr, i32 }
          cleanup
  call void @_ZN4pkpy3StrD1Ev(ptr noundef nonnull align 8 dereferenceable(32) %4) #26
  resume { ptr, i32 } %21

"_ZZN4pkpy6FileIO9_registerEPNS_2VMEPNS_8PyObjectES4_ENK3$_4clES2_NS_8ArgsViewE.exit": ; preds = %3, %_ZN4pkpy2VM7IOErrorERKNS_3StrE.exit.i
  %22 = getelementptr inbounds nuw i8, ptr %0, i64 264520
  %23 = load ptr, ptr %22, align 8
  call void @llvm.lifetime.end.p0(i64 32, ptr nonnull %4)
  ret ptr %23
}